target datalayout = "e-m:e-p270:32:32-p271:32:32-p272:64:64-i64:64-i128:128-f80:128-n8:16:32:64-S128"
target triple = "x86_64-pc-linux-gnu"

%struct.H5D_chk_idx_info_t = type { ptr, ptr, ptr, ptr }
%struct.H5O_layout_chunk_t = type { i32, i8, i32, [33 x i32], i32, i32, i64, i64, [33 x i64], [33 x i64], [33 x i64], [33 x i64], %union.anon.0 }
%union.anon.0 = type { %struct.H5O_layout_chunk_earray_t }
%struct.H5O_layout_chunk_earray_t = type { %struct.anon.1, i32, [33 x i32], [33 x i64], [33 x i64] }
%struct.anon.1 = type { i8, i8, i8, i8, i8 }
%struct.H5O_storage_chunk_t = type { i32, i64, ptr, %union.anon.3 }
%union.anon.3 = type { %struct.H5O_storage_chunk_btree_t }
%struct.H5O_storage_chunk_btree_t = type { i64, ptr }
%struct.H5O_storage_chunk_single_filt_t = type { i32, i32 }

@H5D_init_g = external global i8, align 1
@H5_libterm_g = external global i8, align 1
@.str = private unnamed_addr constant [103 x i8] c"generated/home/dtcxzyw/WorkSpace/Projects/compilers/llvm-opt-benchmark/bench/hdf5/hdf5/src/H5Dsingle.c\00", align 1
@H5E_DATASET_g = external global i64, align 8
@__func__.H5D__single_idx_remove = private unnamed_addr constant [23 x i8] c"H5D__single_idx_remove\00", align 1
@H5E_CANTFREE_g = external global i64, align 8
@.str.3 = private unnamed_addr constant [30 x i8] c"unable to free dataset chunks\00", align 1

; Function Attrs: nounwind uwtable
define internal i32 @H5D__single_idx_remove(ptr noundef %0, ptr noundef %1) #0 {
  %3 = alloca ptr, align 8
  %4 = alloca ptr, align 8
  %5 = alloca i64, align 8
  %6 = alloca i32, align 4
  %7 = alloca i8, align 1
  store ptr %0, ptr %3, align 8, !tbaa !3
  store ptr %1, ptr %4, align 8, !tbaa !84
  call void @llvm.lifetime.start.p0(i64 8, ptr %5) #6
  call void @llvm.lifetime.start.p0(i64 4, ptr %6) #6
  store i32 0, ptr %6, align 4, !tbaa !42
  call void @llvm.lifetime.start.p0(i64 1, ptr %7) #6
  store i8 0, ptr %7, align 1, !tbaa !12
  %8 = load i8, ptr @H5D_init_g, align 1, !tbaa !12, !range !14, !noundef !15
  %9 = trunc i8 %8 to i1
  br i1 %9, label %14, label %10

10:                                               ; preds = %2
  %11 = load i8, ptr @H5_libterm_g, align 1, !tbaa !12, !range !14, !noundef !15
  %12 = trunc i8 %11 to i1
  %13 = xor i1 %12, true
  br label %14

14:                                               ; preds = %10, %2
  %15 = phi i1 [ true, %2 ], [ %13, %10 ]
  %16 = xor i1 %15, true
  %17 = xor i1 %16, true
  %18 = zext i1 %17 to i32
  %19 = sext i32 %18 to i64
  %20 = call i64 @llvm.expect.i64(i64 %19, i64 1)
  %21 = icmp ne i64 %20, 0
  br i1 %21, label %22, label %83

22:                                               ; preds = %14
  %23 = load ptr, ptr %3, align 8, !tbaa !3
  %24 = getelementptr inbounds nuw %struct.H5D_chk_idx_info_t, ptr %23, i32 0, i32 2
  %25 = load ptr, ptr %24, align 8, !tbaa !27
  %26 = getelementptr inbounds nuw %struct.H5O_layout_chunk_t, ptr %25, i32 0, i32 1
  %27 = load i8, ptr %26, align 4, !tbaa !28
  %28 = zext i8 %27 to i32
  %29 = and i32 %28, 2
  %30 = icmp ne i32 %29, 0
  br i1 %30, label %31, label %39

31:                                               ; preds = %22
  %32 = load ptr, ptr %3, align 8, !tbaa !3
  %33 = getelementptr inbounds nuw %struct.H5D_chk_idx_info_t, ptr %32, i32 0, i32 3
  %34 = load ptr, ptr %33, align 8, !tbaa !30
  %35 = getelementptr inbounds nuw %struct.H5O_storage_chunk_t, ptr %34, i32 0, i32 3
  %36 = getelementptr inbounds nuw %struct.H5O_storage_chunk_single_filt_t, ptr %35, i32 0, i32 0
  %37 = load i32, ptr %36, align 8, !tbaa !34
  %38 = zext i32 %37 to i64
  store i64 %38, ptr %5, align 8, !tbaa !10
  br label %46

39:                                               ; preds = %22
  %40 = load ptr, ptr %3, align 8, !tbaa !3
  %41 = getelementptr inbounds nuw %struct.H5D_chk_idx_info_t, ptr %40, i32 0, i32 2
  %42 = load ptr, ptr %41, align 8, !tbaa !27
  %43 = getelementptr inbounds nuw %struct.H5O_layout_chunk_t, ptr %42, i32 0, i32 5
  %44 = load i32, ptr %43, align 4, !tbaa !78
  %45 = zext i32 %44 to i64
  store i64 %45, ptr %5, align 8, !tbaa !10
  br label %46

46:                                               ; preds = %39, %31
  %47 = load ptr, ptr %3, align 8, !tbaa !3
  %48 = getelementptr inbounds nuw %struct.H5D_chk_idx_info_t, ptr %47, i32 0, i32 0
  %49 = load ptr, ptr %48, align 8, !tbaa !86
  %50 = load ptr, ptr %3, align 8, !tbaa !3
  %51 = getelementptr inbounds nuw %struct.H5D_chk_idx_info_t, ptr %50, i32 0, i32 3
  %52 = load ptr, ptr %51, align 8, !tbaa !30
  %53 = getelementptr inbounds nuw %struct.H5O_storage_chunk_t, ptr %52, i32 0, i32 1
  %54 = load i64, ptr %53, align 8, !tbaa !31
  %55 = load i64, ptr %5, align 8, !tbaa !10
  %56 = call i32 @H5MF_xfree(ptr noundef %49, i32 noundef 3, i64 noundef %54, i64 noundef %55)
  %57 = icmp slt i32 %56, 0
  br i1 %57, label %58, label %77

58:                                               ; preds = %46
  br label %59

59:                                               ; preds = %58
  br label %60

60:                                               ; preds = %59
  br label %61

61:                                               ; preds = %60
  %62 = load i64, ptr @H5E_DATASET_g, align 8, !tbaa !10
  %63 = load i64, ptr @H5E_CANTFREE_g, align 8, !tbaa !10
  %64 = call i32 (ptr, ptr, i32, i64, i64, ptr, ...) @H5E_printf_stack(ptr noundef @.str, ptr noundef @__func__.H5D__single_idx_remove, i32 noundef 439, i64 noundef %62, i64 noundef %63, ptr noundef @.str.3)
  br label %65

65:                                               ; preds = %61
  br label %66

66:                                               ; preds = %65
  store i8 1, ptr %7, align 1, !tbaa !12
  %67 = load i8, ptr %7, align 1, !tbaa !12, !range !14, !noundef !15
  %68 = trunc i8 %67 to i1
  %69 = zext i1 %68 to i8
  store i8 %69, ptr %7, align 1, !tbaa !12
  br label %70

70:                                               ; preds = %66
  br label %71

71:                                               ; preds = %70
  br label %72

72:                                               ; preds = %71
  store i32 -1, ptr %6, align 4, !tbaa !42
  br label %82

73:                                               ; No predecessors!
  br label %74

74:                                               ; preds = %73
  br label %75

75:                                               ; preds = %74
  br label %76

76:                                               ; preds = %75
  br label %77

77:                                               ; preds = %76, %46
  %78 = load ptr, ptr %3, align 8, !tbaa !3
  %79 = getelementptr inbounds nuw %struct.H5D_chk_idx_info_t, ptr %78, i32 0, i32 3
  %80 = load ptr, ptr %79, align 8, !tbaa !30
  %81 = getelementptr inbounds nuw %struct.H5O_storage_chunk_t, ptr %80, i32 0, i32 1
  store i64 -1, ptr %81, align 8, !tbaa !31
  br label %82

82:                                               ; preds = %77, %72
  br label %83

83:                                               ; preds = %82, %14
  %84 = load i32, ptr %6, align 4, !tbaa !42
  call void @llvm.lifetime.end.p0(i64 1, ptr %7) #6
  call void @llvm.lifetime.end.p0(i64 4, ptr %6) #6
  call void @llvm.lifetime.end.p0(i64 8, ptr %5) #6
  ret i32 %84
}

; Function Attrs: nounwind uwtable
define internal i32 @H5D__single_idx_delete(ptr noundef %0) #0 {
  %2 = alloca ptr, align 8
  %3 = alloca i32, align 4
  store ptr %0, ptr %2, align 8, !tbaa !3
  call void @llvm.lifetime.start.p0(i64 4, ptr %3) #6
  store i32 0, ptr %3, align 4, !tbaa !42
  %4 = load i8, ptr @H5D_init_g, align 1, !tbaa !12, !range !14, !noundef !15
  %5 = trunc i8 %4 to i1
  br i1 %5, label %10, label %6

6:                                                ; preds = %1
  %7 = load i8, ptr @H5_libterm_g, align 1, !tbaa !12, !range !14, !noundef !15
  %8 = trunc i8 %7 to i1
  %9 = xor i1 %8, true
  br label %10

10:                                               ; preds = %6, %1
  %11 = phi i1 [ true, %1 ], [ %9, %6 ]
  %12 = xor i1 %11, true
  %13 = xor i1 %12, true
  %14 = zext i1 %13 to i32
  %15 = sext i32 %14 to i64
  %16 = call i64 @llvm.expect.i64(i64 %15, i64 1)
  %17 = icmp ne i64 %16, 0
  br i1 %17, label %18, label %30

18:                                               ; preds = %10
  %19 = load ptr, ptr %2, align 8, !tbaa !3
  %20 = getelementptr inbounds nuw %struct.H5D_chk_idx_info_t, ptr %19, i32 0, i32 3
  %21 = load ptr, ptr %20, align 8, !tbaa !30
  %22 = getelementptr inbounds nuw %struct.H5O_storage_chunk_t, ptr %21, i32 0, i32 1
  %23 = load i64, ptr %22, align 8, !tbaa !31
  %24 = icmp ne i64 %23, -1
  br i1 %24, label %25, label %28

25:                                               ; preds = %18
  %26 = load ptr, ptr %2, align 8, !tbaa !3
  %27 = call i32 @H5D__single_idx_remove(ptr noundef %26, ptr noundef null)
  store i32 %27, ptr %3, align 4, !tbaa !42
  br label %29

28:                                               ; preds = %18
  br label %29

29:                                               ; preds = %28, %25
  br label %30

30:                                               ; preds = %29, %10
  %31 = load i32, ptr %3, align 4, !tbaa !42
  call void @llvm.lifetime.end.p0(i64 4, ptr %3) #6
  ret i32 %31
}