; Function Attrs: nounwind uwtable
define internal range(i32 -1, 1) i32 @H5D__single_idx_delete(ptr noundef readonly captures(none) %0) #4 {
  %2 = load i8, ptr @H5D_init_g, align 1, !tbaa !3, !range !7, !noundef !8
  %3 = trunc nuw i8 %2 to i1
  %4 = load i8, ptr @H5_libterm_g, align 1, !range !7
  %5 = trunc nuw i8 %4 to i1
  %6 = xor i1 %5, true
  %7 = select i1 %3, i1 true, i1 %6
  br i1 %7, label %8, label %H5D__single_idx_remove.exit, !prof !9

8:                                                ; preds = %1
  %9 = getelementptr inbounds nuw i8, ptr %0, i64 24
  %10 = load ptr, ptr %9, align 8, !tbaa !26
  %11 = getelementptr inbounds nuw i8, ptr %10, i64 8
  %12 = load i64, ptr %11, align 8, !tbaa !27
  %.not = icmp eq i64 %12, -1
  br i1 %.not, label %H5D__single_idx_remove.exit, label %13

13:                                               ; preds = %8
  %14 = getelementptr inbounds nuw i8, ptr %0, i64 16
  %15 = load ptr, ptr %14, align 8, !tbaa !23
  %16 = getelementptr inbounds nuw i8, ptr %15, i64 4
  %17 = load i8, ptr %16, align 4, !tbaa !24
  %18 = and i8 %17, 2
  %.not.i = icmp eq i8 %18, 0
  %19 = getelementptr inbounds nuw i8, ptr %10, i64 24
  %20 = getelementptr inbounds nuw i8, ptr %15, i64 148
  %.08.in.in.i = select i1 %.not.i, ptr %20, ptr %19
  %.08.in.i = load i32, ptr %.08.in.in.i, align 4, !tbaa !30
  %.08.i = zext i32 %.08.in.i to i64
  %21 = load ptr, ptr %0, align 8, !tbaa !73
  %22 = tail call i32 @H5MF_xfree(ptr noundef %21, i32 noundef 3, i64 noundef %12, i64 noundef %.08.i) #11
  %23 = icmp slt i32 %22, 0
  br i1 %23, label %24, label %28

24:                                               ; preds = %13
  %25 = load i64, ptr @H5E_DATASET_g, align 8, !tbaa !67
  %26 = load i64, ptr @H5E_CANTFREE_g, align 8, !tbaa !67
  %27 = tail call i32 (ptr, ptr, i32, i64, i64, ptr, ...) @H5E_printf_stack(ptr noundef nonnull @.str, ptr noundef nonnull @__func__.H5D__single_idx_remove, i32 noundef 439, i64 noundef %25, i64 noundef %26, ptr noundef nonnull @.str.3) #11
  br label %H5D__single_idx_remove.exit

28:                                               ; preds = %13
  %29 = load ptr, ptr %9, align 8, !tbaa !26
  %30 = getelementptr inbounds nuw i8, ptr %29, i64 8
  store i64 -1, ptr %30, align 8, !tbaa !27
  br label %H5D__single_idx_remove.exit

H5D__single_idx_remove.exit:                      ; preds = %28, %24, %8, %1
  %.0 = phi i32 [ 0, %8 ], [ 0, %1 ], [ -1, %24 ], [ 0, %28 ]
  ret i32 %.0
}